target datalayout = "e-m:e-p270:32:32-p271:32:32-p272:64:64-i64:64-i128:128-f80:128-n8:16:32:64-S128"
target triple = "x86_64-pc-linux-gnu"

%"class.VM_Version::CpuidInfo" = type { i32, i32, i32, i32, %"union.VM_Version::StdCpuid1Eax", %"union.VM_Version::StdCpuid1Ebx", %"union.VM_Version::StdCpuid1Ecx", %"union.VM_Version::StdCpuid1Edx", %"union.VM_Version::DcpCpuid4Eax", %"union.VM_Version::DcpCpuid4Ebx", i32, i32, %"union.VM_Version::SefCpuid7Eax", %"union.VM_Version::SefCpuid7Ebx", %"union.VM_Version::SefCpuid7Ecx", %"union.VM_Version::SefCpuid7Edx", %"union.VM_Version::SefCpuid7SubLeaf1Eax", %"union.VM_Version::SefCpuid7SubLeaf1Edx", i32, %"union.VM_Version::TplCpuidBEbx", i32, i32, i32, %"union.VM_Version::TplCpuidBEbx", i32, i32, i32, %"union.VM_Version::TplCpuidBEbx", i32, i32, i32, i32, i32, i32, i32, i32, %"union.VM_Version::ExtCpuid1Ecx", %"union.VM_Version::ExtCpuid1Edx", i32, i32, i32, i32, i32, i32, i32, i32, i32, i32, i32, i32, i32, i32, %"union.VM_Version::ExtCpuid5Ex", %"union.VM_Version::ExtCpuid5Ex", i32, i32, i32, %"union.VM_Version::ExtCpuid7Edx", i32, i32, %"union.VM_Version::ExtCpuid8Ecx", i32, i32, %"union.VM_Version::ExtCpuid1EEbx", i32, i32, %"union.VM_Version::XemXcr0Eax", i32, [32 x i32], [64 x i32], [2 x i64] }
%"union.VM_Version::StdCpuid1Eax" = type { i32 }
%"union.VM_Version::StdCpuid1Ebx" = type { i32 }
%"union.VM_Version::StdCpuid1Ecx" = type { i32 }
%"union.VM_Version::StdCpuid1Edx" = type { i32 }
%"union.VM_Version::DcpCpuid4Eax" = type { i32 }
%"union.VM_Version::DcpCpuid4Ebx" = type { i32 }
%"union.VM_Version::SefCpuid7Eax" = type { i32 }
%"union.VM_Version::SefCpuid7Ebx" = type { i32 }
%"union.VM_Version::SefCpuid7Ecx" = type { i32 }
%"union.VM_Version::SefCpuid7Edx" = type { i32 }
%"union.VM_Version::SefCpuid7SubLeaf1Eax" = type { i32 }
%"union.VM_Version::SefCpuid7SubLeaf1Edx" = type { i32 }
%"union.VM_Version::TplCpuidBEbx" = type { i32 }
%"union.VM_Version::ExtCpuid1Ecx" = type { i32 }
%"union.VM_Version::ExtCpuid1Edx" = type { i32 }
%"union.VM_Version::ExtCpuid5Ex" = type { i32 }
%"union.VM_Version::ExtCpuid7Edx" = type { i32 }
%"union.VM_Version::ExtCpuid8Ecx" = type { i32 }
%"union.VM_Version::ExtCpuid1EEbx" = type { i32 }
%"union.VM_Version::XemXcr0Eax" = type { i32 }

@_ZN10VM_Version4_cpuE = hidden global i32 0, align 4
@_ZN10VM_Version11_cpuid_infoE = hidden global %"class.VM_Version::CpuidInfo" zeroinitializer, align 8

; Function Attrs: mustprogress nounwind uwtable
define linkonce_odr hidden noundef zeroext i1 @_ZN10VM_Version8is_hygonEv() #1 comdat align 2 {
  call void @_ZN10VM_Version21assert_is_initializedEv()
  %1 = load i32, ptr getelementptr inbounds (%"class.VM_Version::CpuidInfo", ptr @_ZN10VM_Version11_cpuid_infoE, i32 0, i32 1), align 4
  %2 = icmp eq i32 %1, 1869052232
  ret i1 %2
}

; Function Attrs: mustprogress nounwind uwtable
define linkonce_odr hidden noundef zeroext i1 @_ZN10VM_Version6is_amdEv() #1 comdat align 2 {
  call void @_ZN10VM_Version21assert_is_initializedEv()
  %1 = load i32, ptr getelementptr inbounds (%"class.VM_Version::CpuidInfo", ptr @_ZN10VM_Version11_cpuid_infoE, i32 0, i32 1), align 4
  %2 = icmp eq i32 %1, 1752462657
  ret i1 %2
}

; Function Attrs: mustprogress nounwind uwtable
define linkonce_odr hidden void @_ZNK10VM_Version9CpuidInfo21assert_is_initializedEv(ptr noundef nonnull align 8 dereferenceable(672) %0) #1 comdat align 2 {
  %2 = alloca ptr, align 8
  store ptr %0, ptr %2, align 8
  ret void
}

; Function Attrs: mustprogress nounwind uwtable
define linkonce_odr hidden noundef zeroext i1 @_ZN10VM_Version13is_amd_familyEv() #1 comdat align 2 {
  %1 = call noundef zeroext i1 @_ZN10VM_Version6is_amdEv()
  br i1 %1, label %4, label %2

2:                                                ; preds = %0
  %3 = call noundef zeroext i1 @_ZN10VM_Version8is_hygonEv()
  br label %4

4:                                                ; preds = %2, %0
  %5 = phi i1 [ true, %0 ], [ %3, %2 ]
  ret i1 %5
}

; Function Attrs: mustprogress nounwind uwtable
define linkonce_odr hidden void @_ZN10VM_Version21assert_is_initializedEv() #1 comdat align 2 {
  call void @_ZNK10VM_Version9CpuidInfo21assert_is_initializedEv(ptr noundef nonnull align 8 dereferenceable(672) @_ZN10VM_Version11_cpuid_infoE)
  ret void
}

; Function Attrs: mustprogress nounwind uwtable
define hidden noundef i32 @_ZN10VM_Version13cores_per_cpuEv() #1 align 2 {
  %1 = alloca i32, align 4
  %2 = alloca i8, align 1
  %3 = alloca i8, align 1
  store i32 1, ptr %1, align 4
  %4 = call noundef zeroext i1 @_ZN10VM_Version8is_intelEv()
  br i1 %4, label %5, label %27

5:                                                ; preds = %0
  %6 = call noundef zeroext i1 @_ZN10VM_Version27supports_processor_topologyEv()
  %7 = zext i1 %6 to i8
  store i8 %7, ptr %2, align 1
  %8 = load i8, ptr %2, align 1
  %9 = trunc i8 %8 to i1
  br i1 %9, label %10, label %16

10:                                               ; preds = %5
  %11 = load i32, ptr getelementptr inbounds (%"class.VM_Version::CpuidInfo", ptr @_ZN10VM_Version11_cpuid_infoE, i32 0, i32 23), align 4
  %12 = and i32 %11, 65535
  %13 = load i32, ptr getelementptr inbounds (%"class.VM_Version::CpuidInfo", ptr @_ZN10VM_Version11_cpuid_infoE, i32 0, i32 19), align 4
  %14 = and i32 %13, 65535
  %15 = sdiv i32 %12, %14
  store i32 %15, ptr %1, align 4
  br label %16

16:                                               ; preds = %10, %5
  %17 = load i8, ptr %2, align 1
  %18 = trunc i8 %17 to i1
  br i1 %18, label %19, label %22

19:                                               ; preds = %16
  %20 = load i32, ptr %1, align 4
  %21 = icmp eq i32 %20, 0
  br i1 %21, label %22, label %26

22:                                               ; preds = %19, %16
  %23 = load i32, ptr getelementptr inbounds (%"class.VM_Version::CpuidInfo", ptr @_ZN10VM_Version11_cpuid_infoE, i32 0, i32 8), align 8
  %24 = lshr i32 %23, 26
  %25 = add nsw i32 %24, 1
  store i32 %25, ptr %1, align 4
  br label %26

26:                                               ; preds = %22, %19
  br label %59

27:                                               ; preds = %0
  %28 = call noundef zeroext i1 @_ZN10VM_Version13is_amd_familyEv()
  br i1 %28, label %29, label %33

29:                                               ; preds = %27
  %30 = load i32, ptr getelementptr inbounds (%"class.VM_Version::CpuidInfo", ptr @_ZN10VM_Version11_cpuid_infoE, i32 0, i32 60), align 8
  %31 = and i32 %30, 255
  %32 = add nsw i32 %31, 1
  store i32 %32, ptr %1, align 4
  br label %58

33:                                               ; preds = %27
  %34 = call noundef zeroext i1 @_ZN10VM_Version5is_zxEv()
  br i1 %34, label %35, label %57

35:                                               ; preds = %33
  %36 = call noundef zeroext i1 @_ZN10VM_Version27supports_processor_topologyEv()
  %37 = zext i1 %36 to i8
  store i8 %37, ptr %3, align 1
  %38 = load i8, ptr %3, align 1
  %39 = trunc i8 %38 to i1
  br i1 %39, label %40, label %46

40:                                               ; preds = %35
  %41 = load i32, ptr getelementptr inbounds (%"class.VM_Version::CpuidInfo", ptr @_ZN10VM_Version11_cpuid_infoE, i32 0, i32 23), align 4
  %42 = and i32 %41, 65535
  %43 = load i32, ptr getelementptr inbounds (%"class.VM_Version::CpuidInfo", ptr @_ZN10VM_Version11_cpuid_infoE, i32 0, i32 19), align 4
  %44 = and i32 %43, 65535
  %45 = sdiv i32 %42, %44
  store i32 %45, ptr %1, align 4
  br label %46

46:                                               ; preds = %40, %35
  %47 = load i8, ptr %3, align 1
  %48 = trunc i8 %47 to i1
  br i1 %48, label %49, label %52

49:                                               ; preds = %46
  %50 = load i32, ptr %1, align 4
  %51 = icmp eq i32 %50, 0
  br i1 %51, label %52, label %56

52:                                               ; preds = %49, %46
  %53 = load i32, ptr getelementptr inbounds (%"class.VM_Version::CpuidInfo", ptr @_ZN10VM_Version11_cpuid_infoE, i32 0, i32 8), align 8
  %54 = lshr i32 %53, 26
  %55 = add nsw i32 %54, 1
  store i32 %55, ptr %1, align 4
  br label %56

56:                                               ; preds = %52, %49
  br label %57

57:                                               ; preds = %56, %33
  br label %58

58:                                               ; preds = %57, %29
  br label %59

59:                                               ; preds = %58, %26
  %60 = load i32, ptr %1, align 4
  ret i32 %60
}

; Function Attrs: mustprogress nounwind uwtable
define linkonce_odr hidden noundef i32 @_ZN10VM_Version10cpu_familyEv() #1 comdat align 2 {
  %1 = load i32, ptr @_ZN10VM_Version4_cpuE, align 4
  ret i32 %1
}

; Function Attrs: mustprogress nounwind uwtable
define linkonce_odr hidden noundef zeroext i1 @_ZN10VM_Version5is_zxEv() #1 comdat align 2 {
  call void @_ZN10VM_Version21assert_is_initializedEv()
  %1 = load i32, ptr getelementptr inbounds (%"class.VM_Version::CpuidInfo", ptr @_ZN10VM_Version11_cpuid_infoE, i32 0, i32 1), align 4
  %2 = icmp eq i32 %1, 1953391939
  br i1 %2, label %6, label %3

3:                                                ; preds = %0
  %4 = load i32, ptr getelementptr inbounds (%"class.VM_Version::CpuidInfo", ptr @_ZN10VM_Version11_cpuid_infoE, i32 0, i32 1), align 4
  %5 = icmp eq i32 %4, 1750278176
  br label %6

6:                                                ; preds = %3, %0
  %7 = phi i1 [ true, %0 ], [ %5, %3 ]
  ret i1 %7
}

; Function Attrs: mustprogress nounwind uwtable
define linkonce_odr hidden noundef zeroext i1 @_ZN10VM_Version27supports_processor_topologyEv() #1 comdat align 2 {
  %1 = load i32, ptr @_ZN10VM_Version11_cpuid_infoE, align 8
  %2 = icmp uge i32 %1, 11
  br i1 %2, label %3, label %10

3:                                                ; preds = %0
  %4 = load i32, ptr getelementptr inbounds (%"class.VM_Version::CpuidInfo", ptr @_ZN10VM_Version11_cpuid_infoE, i32 0, i32 18), align 8
  %5 = and i32 %4, 31
  %6 = load i32, ptr getelementptr inbounds (%"class.VM_Version::CpuidInfo", ptr @_ZN10VM_Version11_cpuid_infoE, i32 0, i32 19), align 4
  %7 = and i32 %6, 65535
  %8 = or i32 %5, %7
  %9 = icmp ne i32 %8, 0
  br label %10

10:                                               ; preds = %3, %0
  %11 = phi i1 [ false, %0 ], [ %9, %3 ]
  ret i1 %11
}

; Function Attrs: mustprogress nounwind uwtable
define linkonce_odr hidden noundef zeroext i1 @_ZN10VM_Version8is_intelEv() #1 comdat align 2 {
  call void @_ZN10VM_Version21assert_is_initializedEv()
  %1 = load i32, ptr getelementptr inbounds (%"class.VM_Version::CpuidInfo", ptr @_ZN10VM_Version11_cpuid_infoE, i32 0, i32 1), align 4
  %2 = icmp eq i32 %1, 1970169159
  ret i1 %2
}

; Function Attrs: mustprogress nounwind uwtable
define hidden noundef i32 @_ZN10VM_Version16threads_per_coreEv() #1 align 2 {
  %1 = alloca i32, align 4
  store i32 1, ptr %1, align 4
  %2 = call noundef zeroext i1 @_ZN10VM_Version8is_intelEv()
  br i1 %2, label %3, label %8

3:                                                ; preds = %0
  %4 = call noundef zeroext i1 @_ZN10VM_Version27supports_processor_topologyEv()
  br i1 %4, label %5, label %8

5:                                                ; preds = %3
  %6 = load i32, ptr getelementptr inbounds (%"class.VM_Version::CpuidInfo", ptr @_ZN10VM_Version11_cpuid_infoE, i32 0, i32 19), align 4
  %7 = and i32 %6, 65535
  store i32 %7, ptr %1, align 4
  br label %37

8:                                                ; preds = %3, %0
  %9 = call noundef zeroext i1 @_ZN10VM_Version5is_zxEv()
  br i1 %9, label %10, label %15

10:                                               ; preds = %8
  %11 = call noundef zeroext i1 @_ZN10VM_Version27supports_processor_topologyEv()
  br i1 %11, label %12, label %15

12:                                               ; preds = %10
  %13 = load i32, ptr getelementptr inbounds (%"class.VM_Version::CpuidInfo", ptr @_ZN10VM_Version11_cpuid_infoE, i32 0, i32 19), align 4
  %14 = and i32 %13, 65535
  store i32 %14, ptr %1, align 4
  br label %36

15:                                               ; preds = %10, %8
  %16 = load i32, ptr getelementptr inbounds (%"class.VM_Version::CpuidInfo", ptr @_ZN10VM_Version11_cpuid_infoE, i32 0, i32 7), align 4
  %17 = lshr i32 %16, 28
  %18 = and i32 %17, 1
  %19 = icmp ne i32 %18, 0
  br i1 %19, label %20, label %35

20:                                               ; preds = %15
  %21 = call noundef i32 @_ZN10VM_Version10cpu_familyEv()
  %22 = icmp sge i32 %21, 23
  br i1 %22, label %23, label %28

23:                                               ; preds = %20
  %24 = load i32, ptr getelementptr inbounds (%"class.VM_Version::CpuidInfo", ptr @_ZN10VM_Version11_cpuid_infoE, i32 0, i32 63), align 4
  %25 = lshr i32 %24, 8
  %26 = and i32 %25, 255
  %27 = add nsw i32 %26, 1
  store i32 %27, ptr %1, align 4
  br label %34

28:                                               ; preds = %20
  %29 = load i32, ptr getelementptr inbounds (%"class.VM_Version::CpuidInfo", ptr @_ZN10VM_Version11_cpuid_infoE, i32 0, i32 5), align 4
  %30 = lshr i32 %29, 16
  %31 = and i32 %30, 255
  %32 = call noundef i32 @_ZN10VM_Version13cores_per_cpuEv()
  %33 = udiv i32 %31, %32
  store i32 %33, ptr %1, align 4
  br label %34

34:                                               ; preds = %28, %23
  br label %35

35:                                               ; preds = %34, %15
  br label %36

36:                                               ; preds = %35, %12
  br label %37

37:                                               ; preds = %36, %5
  %38 = load i32, ptr %1, align 4
  %39 = icmp eq i32 %38, 0
  br i1 %39, label %40, label %41

40:                                               ; preds = %37
  br label %43

41:                                               ; preds = %37
  %42 = load i32, ptr %1, align 4
  br label %43

43:                                               ; preds = %41, %40
  %44 = phi i32 [ 1, %40 ], [ %42, %41 ]
  ret i32 %44
}