; Function Attrs: mustprogress nofree norecurse nosync nounwind willreturn memory(read, argmem: none, inaccessiblemem: none) uwtable
define hidden noundef range(i32 0, 65536) i32 @_ZN10VM_Version16threads_per_coreEv() local_unnamed_addr #3 align 2 {
  %1 = load i32, ptr getelementptr inbounds (i8, ptr @_ZN10VM_Version11_cpuid_infoE, i64 4), align 4
  %2 = icmp eq i32 %1, 1970169159
  %3 = load i32, ptr @_ZN10VM_Version11_cpuid_infoE, align 8
  %4 = icmp ugt i32 %3, 10
  %or.cond = select i1 %2, i1 %4, i1 false
  br i1 %or.cond, label %_ZN10VM_Version27supports_processor_topologyEv.exit, label %_ZN10VM_Version27supports_processor_topologyEv.exit.thread

_ZN10VM_Version27supports_processor_topologyEv.exit: ; preds = %0
  %5 = load i32, ptr getelementptr inbounds (i8, ptr @_ZN10VM_Version11_cpuid_infoE, i64 72), align 8
  %6 = and i32 %5, 31
  %7 = load i32, ptr getelementptr inbounds (i8, ptr @_ZN10VM_Version11_cpuid_infoE, i64 76), align 4
  %8 = and i32 %7, 65535
  %9 = or i32 %8, %6
  %.not4 = icmp eq i32 %9, 0
  br i1 %.not4, label %_ZN10VM_Version27supports_processor_topologyEv.exit2.thread, label %59

_ZN10VM_Version27supports_processor_topologyEv.exit.thread: ; preds = %0
  switch i32 %1, label %_ZN10VM_Version27supports_processor_topologyEv.exit2.thread [
    i32 1953391939, label %10
    i32 1750278176, label %10
  ]

10:                                               ; preds = %_ZN10VM_Version27supports_processor_topologyEv.exit.thread, %_ZN10VM_Version27supports_processor_topologyEv.exit.thread
  br i1 %4, label %_ZN10VM_Version27supports_processor_topologyEv.exit2, label %_ZN10VM_Version27supports_processor_topologyEv.exit2.thread

_ZN10VM_Version27supports_processor_topologyEv.exit2: ; preds = %10
  %11 = load i32, ptr getelementptr inbounds (i8, ptr @_ZN10VM_Version11_cpuid_infoE, i64 72), align 8
  %12 = and i32 %11, 31
  %13 = load i32, ptr getelementptr inbounds (i8, ptr @_ZN10VM_Version11_cpuid_infoE, i64 76), align 4
  %14 = and i32 %13, 65535
  %15 = or i32 %14, %12
  %.not5 = icmp eq i32 %15, 0
  br i1 %.not5, label %_ZN10VM_Version27supports_processor_topologyEv.exit2.thread, label %59

_ZN10VM_Version27supports_processor_topologyEv.exit2.thread: ; preds = %_ZN10VM_Version27supports_processor_topologyEv.exit, %_ZN10VM_Version27supports_processor_topologyEv.exit.thread, %10, %_ZN10VM_Version27supports_processor_topologyEv.exit2
  %16 = load i32, ptr getelementptr inbounds (i8, ptr @_ZN10VM_Version11_cpuid_infoE, i64 28), align 4
  %17 = and i32 %16, 268435456
  %.not = icmp eq i32 %17, 0
  br i1 %.not, label %59, label %18

18:                                               ; preds = %_ZN10VM_Version27supports_processor_topologyEv.exit2.thread
  %19 = load i32, ptr @_ZN10VM_Version4_cpuE, align 4
  %20 = icmp sgt i32 %19, 22
  br i1 %20, label %21, label %26

21:                                               ; preds = %18
  %22 = load i32, ptr getelementptr inbounds (i8, ptr @_ZN10VM_Version11_cpuid_infoE, i64 252), align 4
  %23 = lshr i32 %22, 8
  %24 = and i32 %23, 255
  %25 = add nuw nsw i32 %24, 1
  br label %59

26:                                               ; preds = %18
  %27 = load i32, ptr getelementptr inbounds (i8, ptr @_ZN10VM_Version11_cpuid_infoE, i64 20), align 4
  %28 = lshr i32 %27, 16
  switch i32 %1, label %_ZN10VM_Version13cores_per_cpuEv.exit [
    i32 1970169159, label %29
    i32 1869052232, label %41
    i32 1752462657, label %41
    i32 1953391939, label %45
    i32 1750278176, label %45
  ]

29:                                               ; preds = %26
  br i1 %4, label %_ZN10VM_Version27supports_processor_topologyEv.exit.i, label %.thread.i

_ZN10VM_Version27supports_processor_topologyEv.exit.i: ; preds = %29
  %30 = load i32, ptr getelementptr inbounds (i8, ptr @_ZN10VM_Version11_cpuid_infoE, i64 72), align 8
  %31 = and i32 %30, 31
  %32 = load i32, ptr getelementptr inbounds (i8, ptr @_ZN10VM_Version11_cpuid_infoE, i64 76), align 4
  %33 = and i32 %32, 65535
  %34 = or i32 %33, %31
  %.not24.i = icmp eq i32 %34, 0
  br i1 %.not24.i, label %.thread.i, label %35

35:                                               ; preds = %_ZN10VM_Version27supports_processor_topologyEv.exit.i
  %36 = load i32, ptr getelementptr inbounds (i8, ptr @_ZN10VM_Version11_cpuid_infoE, i64 92), align 4
  %.lhs.trunc.i = trunc i32 %36 to i16
  %.rhs.trunc.i = trunc i32 %32 to i16
  %37 = udiv i16 %.lhs.trunc.i, %.rhs.trunc.i
  %.zext.i = zext i16 %37 to i32
  %.not25.i = icmp ugt i16 %.rhs.trunc.i, %.lhs.trunc.i
  br i1 %.not25.i, label %.thread.i, label %_ZN10VM_Version13cores_per_cpuEv.exit

.thread.i:                                        ; preds = %35, %_ZN10VM_Version27supports_processor_topologyEv.exit.i, %29
  %38 = load i32, ptr getelementptr inbounds (i8, ptr @_ZN10VM_Version11_cpuid_infoE, i64 32), align 8
  %39 = lshr i32 %38, 26
  %40 = add nuw nsw i32 %39, 1
  br label %_ZN10VM_Version13cores_per_cpuEv.exit

41:                                               ; preds = %26, %26
  %42 = load i32, ptr getelementptr inbounds (i8, ptr @_ZN10VM_Version11_cpuid_infoE, i64 240), align 8
  %43 = and i32 %42, 255
  %44 = add nuw nsw i32 %43, 1
  br label %_ZN10VM_Version13cores_per_cpuEv.exit

45:                                               ; preds = %26, %26
  br i1 %4, label %_ZN10VM_Version27supports_processor_topologyEv.exit13.i, label %.thread17.i

_ZN10VM_Version27supports_processor_topologyEv.exit13.i: ; preds = %45
  %46 = load i32, ptr getelementptr inbounds (i8, ptr @_ZN10VM_Version11_cpuid_infoE, i64 72), align 8
  %47 = and i32 %46, 31
  %48 = load i32, ptr getelementptr inbounds (i8, ptr @_ZN10VM_Version11_cpuid_infoE, i64 76), align 4
  %49 = and i32 %48, 65535
  %50 = or i32 %49, %47
  %.not.i = icmp eq i32 %50, 0
  br i1 %.not.i, label %.thread17.i, label %51

51:                                               ; preds = %_ZN10VM_Version27supports_processor_topologyEv.exit13.i
  %52 = load i32, ptr getelementptr inbounds (i8, ptr @_ZN10VM_Version11_cpuid_infoE, i64 92), align 4
  %.lhs.trunc20.i = trunc i32 %52 to i16
  %.rhs.trunc21.i = trunc i32 %48 to i16
  %53 = udiv i16 %.lhs.trunc20.i, %.rhs.trunc21.i
  %.zext22.i = zext i16 %53 to i32
  %.not23.i = icmp ugt i16 %.rhs.trunc21.i, %.lhs.trunc20.i
  br i1 %.not23.i, label %.thread17.i, label %_ZN10VM_Version13cores_per_cpuEv.exit

.thread17.i:                                      ; preds = %51, %_ZN10VM_Version27supports_processor_topologyEv.exit13.i, %45
  %54 = load i32, ptr getelementptr inbounds (i8, ptr @_ZN10VM_Version11_cpuid_infoE, i64 32), align 8
  %55 = lshr i32 %54, 26
  %56 = add nuw nsw i32 %55, 1
  br label %_ZN10VM_Version13cores_per_cpuEv.exit

_ZN10VM_Version13cores_per_cpuEv.exit:            ; preds = %26, %35, %.thread.i, %41, %51, %.thread17.i
  %.2.i = phi i32 [ %40, %.thread.i ], [ %.zext.i, %35 ], [ %44, %41 ], [ %56, %.thread17.i ], [ %.zext22.i, %51 ], [ 1, %26 ]
  %57 = trunc nuw i32 %28 to i16
  %.lhs.trunc = and i16 %57, 255
  %.rhs.trunc = trunc nuw i32 %.2.i to i16
  %58 = udiv i16 %.lhs.trunc, %.rhs.trunc
  %.zext = zext nneg i16 %58 to i32
  br label %59

59:                                               ; preds = %_ZN10VM_Version27supports_processor_topologyEv.exit2, %_ZN10VM_Version27supports_processor_topologyEv.exit, %21, %_ZN10VM_Version13cores_per_cpuEv.exit, %_ZN10VM_Version27supports_processor_topologyEv.exit2.thread
  %.0 = phi i32 [ %25, %21 ], [ %.zext, %_ZN10VM_Version13cores_per_cpuEv.exit ], [ 1, %_ZN10VM_Version27supports_processor_topologyEv.exit2.thread ], [ %8, %_ZN10VM_Version27supports_processor_topologyEv.exit ], [ %14, %_ZN10VM_Version27supports_processor_topologyEv.exit2 ]
  %60 = tail call i32 @llvm.umax.i32(i32 %.0, i32 1)
  ret i32 %60
}